target datalayout = "e-m:e-p270:32:32-p271:32:32-p272:64:64-i64:64-i128:128-f80:128-n8:16:32:64-S128"
target triple = "x86_64-pc-linux-gnu"

%struct.ccan_list_head = type { %struct.ccan_list_node }
%struct.ccan_list_node = type { ptr, ptr }
%struct.rb_objspace = type { %struct.anon.33, %struct.rb_gc_config, [3 x i8], %struct.anon.19, i32, i64, [5 x %struct.rb_heap_struct], i64, ptr, %struct.anon.34, %struct.mark_stack, i64, %struct.anon.35, ptr, %struct.anon.36, i64, %struct.anon.37, %struct.anon.38, %struct.anon.39, ptr, ptr, i64, ptr, i32, i64 }
%struct.anon.33 = type { i64, i64 }
%struct.rb_gc_config = type { i8 }
%struct.anon.19 = type { i16, [2 x i8] }
%struct.rb_heap_struct = type { i16, i64, i64, i64, i64, i64, i64, i64, i64, ptr, %struct.ccan_list_head, ptr, ptr, i64, ptr, i64, i64 }
%struct.anon.34 = type { i32 }
%struct.mark_stack = type { ptr, ptr, i32, i32, i64, i64 }
%struct.anon.35 = type { ptr, i64, i64, [2 x i64], i64, i64, i64 }
%struct.anon.36 = type { i32, i32, ptr, ptr, i64, i64, double, i64, i64, i64, i64, double, i64, i64, i64, i64, %struct.timespec, i64, %struct.timespec, i64, i64 }
%struct.timespec = type { i64, i64 }
%struct.anon.37 = type { i64, i32, i64, i64, i64, i64, i64, i64, i64 }
%struct.anon.38 = type { [31 x i64], [31 x i64], [31 x i64], [31 x i64], i64, ptr }
%struct.anon.39 = type { i64, i64 }
%struct.objspace_and_reason = type { ptr, i32 }

@.str = private unnamed_addr constant [8 x i8] c"../gc.c\00", align 1
@ruby_single_main_ractor = external global ptr, align 8

; Function Attrs: inlinehint nounwind sspstrong uwtable
define internal zeroext i1 @rb_multi_ractor_p() #2 {
  %1 = alloca i1, align 1
  %2 = load ptr, ptr @ruby_single_main_ractor, align 8, !tbaa !16
  %3 = icmp ne ptr %2, null
  %4 = xor i1 %3, true
  %5 = xor i1 %4, true
  %6 = zext i1 %5 to i32
  %7 = sext i32 %6 to i64
  %8 = call i64 @llvm.expect.i64(i64 %7, i64 1)
  %9 = icmp ne i64 %8, 0
  br i1 %9, label %10, label %11

10:                                               ; preds = %0
  store i1 false, ptr %1, align 1
  br label %12

11:                                               ; preds = %0
  store i1 true, ptr %1, align 1
  br label %12

12:                                               ; preds = %11, %10
  %13 = load i1, ptr %1, align 1
  ret i1 %13
}

; Function Attrs: inlinehint nounwind sspstrong uwtable
define internal void @rb_vm_lock_leave(ptr noundef %0, ptr noundef %1, i32 noundef %2) #2 {
  %4 = alloca ptr, align 8
  %5 = alloca ptr, align 8
  %6 = alloca i32, align 4
  store ptr %0, ptr %4, align 8, !tbaa !11
  store ptr %1, ptr %5, align 8, !tbaa !14
  store i32 %2, ptr %6, align 4, !tbaa !7
  %7 = call zeroext i1 @rb_multi_ractor_p()
  br i1 %7, label %8, label %10

8:                                                ; preds = %3
  %9 = load ptr, ptr %4, align 8, !tbaa !11
  call void @rb_vm_lock_leave_body(ptr noundef %9)
  br label %10

10:                                               ; preds = %8, %3
  ret void
}

; Function Attrs: inlinehint nounwind sspstrong uwtable
define internal void @rb_vm_lock_enter(ptr noundef %0, ptr noundef %1, i32 noundef %2) #2 {
  %4 = alloca ptr, align 8
  %5 = alloca ptr, align 8
  %6 = alloca i32, align 4
  store ptr %0, ptr %4, align 8, !tbaa !11
  store ptr %1, ptr %5, align 8, !tbaa !14
  store i32 %2, ptr %6, align 4, !tbaa !7
  %7 = call zeroext i1 @rb_multi_ractor_p()
  br i1 %7, label %8, label %10

8:                                                ; preds = %3
  %9 = load ptr, ptr %4, align 8, !tbaa !11
  call void @rb_vm_lock_enter_body(ptr noundef %9)
  br label %10

10:                                               ; preds = %8, %3
  ret void
}

; Function Attrs: nounwind sspstrong uwtable
define dso_local void @rb_gc_vm_unlock(i32 noundef %0) #0 {
  %2 = alloca i32, align 4
  store i32 %0, ptr %2, align 4, !tbaa !7
  call void @rb_vm_lock_leave(ptr noundef %2, ptr noundef @.str, i32 noundef 144)
  ret void
}

; Function Attrs: nounwind sspstrong uwtable
define dso_local i32 @rb_gc_vm_lock() #0 {
  %1 = alloca i32, align 4
  call void @llvm.lifetime.start.p0(i64 4, ptr %1) #6
  call void @rb_vm_lock_enter(ptr noundef %1, ptr noundef @.str, i32 noundef 137)
  %2 = load i32, ptr %1, align 4, !tbaa !7
  call void @llvm.lifetime.end.p0(i64 4, ptr %1) #6
  ret i32 %2
}

; Function Attrs: nounwind sspstrong uwtable
define internal i32 @garbage_collect(ptr noundef %0, i32 noundef %1) #0 {
  %3 = alloca ptr, align 8
  %4 = alloca i32, align 4
  %5 = alloca i32, align 4
  %6 = alloca i32, align 4
  store ptr %0, ptr %3, align 8, !tbaa !125
  store i32 %1, ptr %4, align 4, !tbaa !7
  call void @llvm.lifetime.start.p0(i64 4, ptr %5) #6
  call void @llvm.lifetime.start.p0(i64 4, ptr %6) #6
  %7 = call i32 @rb_gc_vm_lock()
  store i32 %7, ptr %6, align 4, !tbaa !7
  %8 = load ptr, ptr %3, align 8, !tbaa !125
  call void @gc_rest(ptr noundef %8)
  %9 = load ptr, ptr %3, align 8, !tbaa !125
  %10 = load i32, ptr %4, align 4, !tbaa !7
  %11 = call i32 @gc_start(ptr noundef %9, i32 noundef %10)
  store i32 %11, ptr %5, align 4, !tbaa !7
  %12 = load i32, ptr %6, align 4, !tbaa !7
  call void @rb_gc_vm_unlock(i32 noundef %12)
  %13 = load i32, ptr %5, align 4, !tbaa !7
  call void @llvm.lifetime.end.p0(i64 4, ptr %6) #6
  call void @llvm.lifetime.end.p0(i64 4, ptr %5) #6
  ret i32 %13
}

; Function Attrs: inlinehint nounwind sspstrong memory(argmem: readwrite, inaccessiblemem: readwrite) uwtable
define internal i64 @rbimpl_atomic_size_cas(ptr noundef nonnull %0, i64 noundef %1, i64 noundef %2) #34 {
  %4 = alloca ptr, align 8
  %5 = alloca i64, align 8
  %6 = alloca i64, align 8
  %7 = alloca i64, align 8
  %8 = alloca i8, align 1
  store ptr %0, ptr %4, align 8, !tbaa !268
  store i64 %1, ptr %5, align 8, !tbaa !18
  store i64 %2, ptr %6, align 8, !tbaa !18
  %9 = load ptr, ptr %4, align 8, !tbaa !268
  %10 = load i64, ptr %6, align 8, !tbaa !18
  store i64 %10, ptr %7, align 8, !tbaa !18
  %11 = load i64, ptr %5, align 8
  %12 = load i64, ptr %7, align 8
  %13 = cmpxchg volatile ptr %9, i64 %11, i64 %12 seq_cst seq_cst, align 8
  %14 = extractvalue { i64, i1 } %13, 0
  %15 = extractvalue { i64, i1 } %13, 1
  br i1 %15, label %17, label %16

16:                                               ; preds = %3
  store i64 %14, ptr %5, align 8
  br label %17

17:                                               ; preds = %16, %3
  %18 = zext i1 %15 to i8
  store i8 %18, ptr %8, align 1, !tbaa !41
  %19 = load i64, ptr %5, align 8, !tbaa !18
  ret i64 %19
}

; Function Attrs: nounwind sspstrong uwtable
define internal i32 @garbage_collect_with_gvl(ptr noundef %0, i32 noundef %1) #0 {
  %3 = alloca i32, align 4
  %4 = alloca ptr, align 8
  %5 = alloca i32, align 4
  %6 = alloca ptr, align 8
  %7 = alloca %struct.objspace_and_reason, align 8
  store ptr %0, ptr %4, align 8, !tbaa !125
  store i32 %1, ptr %5, align 4, !tbaa !7
  %8 = load ptr, ptr %4, align 8, !tbaa !125
  %9 = getelementptr inbounds nuw %struct.rb_objspace, ptr %8, i32 0, i32 3
  %10 = load i16, ptr %9, align 4
  %11 = lshr i16 %10, 3
  %12 = and i16 %11, 1
  %13 = zext i16 %12 to i32
  %14 = icmp ne i32 %13, 0
  br i1 %14, label %15, label %16

15:                                               ; preds = %2
  store i32 1, ptr %3, align 4
  br label %38

16:                                               ; preds = %2
  %17 = call i32 @ruby_native_thread_p()
  %18 = icmp ne i32 %17, 0
  br i1 %18, label %20, label %19

19:                                               ; preds = %16
  store i32 1, ptr %3, align 4
  br label %38

20:                                               ; preds = %16
  %21 = call i32 @ruby_thread_has_gvl_p()
  %22 = icmp ne i32 %21, 0
  br i1 %22, label %34, label %23

23:                                               ; preds = %20
  call void @llvm.lifetime.start.p0(i64 8, ptr %6) #6
  call void @llvm.lifetime.start.p0(i64 16, ptr %7) #6
  %24 = load ptr, ptr %4, align 8, !tbaa !125
  %25 = getelementptr inbounds nuw %struct.objspace_and_reason, ptr %7, i32 0, i32 0
  store ptr %24, ptr %25, align 8, !tbaa !744
  %26 = load i32, ptr %5, align 4, !tbaa !7
  %27 = getelementptr inbounds nuw %struct.objspace_and_reason, ptr %7, i32 0, i32 1
  store i32 %26, ptr %27, align 8, !tbaa !746
  %28 = call ptr @rb_thread_call_with_gvl(ptr noundef @gc_with_gvl, ptr noundef %7)
  store ptr %28, ptr %6, align 8, !tbaa !76
  %29 = load ptr, ptr %6, align 8, !tbaa !76
  %30 = icmp ne ptr %29, null
  %31 = xor i1 %30, true
  %32 = xor i1 %31, true
  %33 = zext i1 %32 to i32
  store i32 %33, ptr %3, align 4
  call void @llvm.lifetime.end.p0(i64 16, ptr %7) #6
  call void @llvm.lifetime.end.p0(i64 8, ptr %6) #6
  br label %38

34:                                               ; preds = %20
  %35 = load ptr, ptr %4, align 8, !tbaa !125
  %36 = load i32, ptr %5, align 4, !tbaa !7
  %37 = call i32 @garbage_collect(ptr noundef %35, i32 noundef %36)
  store i32 %37, ptr %3, align 4
  br label %38

38:                                               ; preds = %34, %23, %19, %15
  %39 = load i32, ptr %3, align 4
  ret i32 %39
}

; Function Attrs: inlinehint nounwind sspstrong uwtable
define internal zeroext i1 @has_sweeping_pages(ptr noundef %0) #2 {
  %2 = alloca i1, align 1
  %3 = alloca ptr, align 8
  %4 = alloca i32, align 4
  %5 = alloca i32, align 4
  store ptr %0, ptr %3, align 8, !tbaa !125
  call void @llvm.lifetime.start.p0(i64 4, ptr %4) #6
  store i32 0, ptr %4, align 4, !tbaa !7
  br label %6

6:                                                ; preds = %21, %1
  %7 = load i32, ptr %4, align 4, !tbaa !7
  %8 = icmp slt i32 %7, 5
  br i1 %8, label %10, label %9

9:                                                ; preds = %6
  store i32 2, ptr %5, align 4
  br label %24

10:                                               ; preds = %6
  %11 = load ptr, ptr %3, align 8, !tbaa !125
  %12 = getelementptr inbounds nuw %struct.rb_objspace, ptr %11, i32 0, i32 6
  %13 = load i32, ptr %4, align 4, !tbaa !7
  %14 = sext i32 %13 to i64
  %15 = getelementptr [5 x %struct.rb_heap_struct], ptr %12, i64 0, i64 %14
  %16 = getelementptr inbounds nuw %struct.rb_heap_struct, ptr %15, i32 0, i32 11
  %17 = load ptr, ptr %16, align 8, !tbaa !495
  %18 = icmp ne ptr %17, null
  br i1 %18, label %19, label %20

19:                                               ; preds = %10
  store i1 true, ptr %2, align 1
  store i32 1, ptr %5, align 4
  br label %24

20:                                               ; preds = %10
  br label %21

21:                                               ; preds = %20
  %22 = load i32, ptr %4, align 4, !tbaa !7
  %23 = add i32 %22, 1
  store i32 %23, ptr %4, align 4, !tbaa !7
  br label %6, !llvm.loop !496

24:                                               ; preds = %19, %9
  call void @llvm.lifetime.end.p0(i64 4, ptr %4) #6
  %25 = load i32, ptr %5, align 4
  switch i32 %25, label %29 [
    i32 2, label %26
    i32 1, label %27
  ]

26:                                               ; preds = %24
  store i1 false, ptr %2, align 1
  br label %27

27:                                               ; preds = %26, %24
  %28 = load i1, ptr %2, align 1
  ret i1 %28

29:                                               ; preds = %24
  unreachable
}

; Function Attrs: inlinehint nounwind sspstrong uwtable
define internal void @atomic_sub_nounderflow(ptr noundef %0, i64 noundef %1) #2 {
  %3 = alloca ptr, align 8
  %4 = alloca i64, align 8
  %5 = alloca i64, align 8
  %6 = alloca i32, align 4
  store ptr %0, ptr %3, align 8, !tbaa !268
  store i64 %1, ptr %4, align 8, !tbaa !18
  %7 = load i64, ptr %4, align 8, !tbaa !18
  %8 = icmp eq i64 %7, 0
  br i1 %8, label %9, label %10

9:                                                ; preds = %2
  br label %33

10:                                               ; preds = %2
  br label %11

11:                                               ; preds = %10, %32
  call void @llvm.lifetime.start.p0(i64 8, ptr %5) #6
  %12 = load ptr, ptr %3, align 8, !tbaa !268
  %13 = load i64, ptr %12, align 8, !tbaa !18
  store i64 %13, ptr %5, align 8, !tbaa !18
  %14 = load i64, ptr %5, align 8, !tbaa !18
  %15 = load i64, ptr %4, align 8, !tbaa !18
  %16 = icmp ult i64 %14, %15
  br i1 %16, label %17, label %19

17:                                               ; preds = %11
  %18 = load i64, ptr %5, align 8, !tbaa !18
  store i64 %18, ptr %4, align 8, !tbaa !18
  br label %19

19:                                               ; preds = %17, %11
  %20 = load ptr, ptr %3, align 8, !tbaa !268
  %21 = load i64, ptr %5, align 8, !tbaa !18
  %22 = load i64, ptr %5, align 8, !tbaa !18
  %23 = load i64, ptr %4, align 8, !tbaa !18
  %24 = sub i64 %22, %23
  %25 = call i64 @rbimpl_atomic_size_cas(ptr noundef %20, i64 noundef %21, i64 noundef %24) #48
  %26 = load i64, ptr %5, align 8, !tbaa !18
  %27 = icmp eq i64 %25, %26
  br i1 %27, label %28, label %29

28:                                               ; preds = %19
  store i32 3, ptr %6, align 4
  br label %30

29:                                               ; preds = %19
  store i32 0, ptr %6, align 4
  br label %30

30:                                               ; preds = %29, %28
  call void @llvm.lifetime.end.p0(i64 8, ptr %5) #6
  %31 = load i32, ptr %6, align 4
  switch i32 %31, label %34 [
    i32 0, label %32
    i32 3, label %33
  ]

32:                                               ; preds = %30
  br label %11

33:                                               ; preds = %9, %30
  ret void

34:                                               ; preds = %30
  unreachable
}

; Function Attrs: inlinehint nounwind sspstrong memory(argmem: readwrite, inaccessiblemem: readwrite) uwtable
define internal void @rbimpl_atomic_size_add(ptr noundef nonnull %0, i64 noundef %1) #34 {
  %3 = alloca ptr, align 8
  %4 = alloca i64, align 8
  %5 = alloca i64, align 8
  %6 = alloca i64, align 8
  store ptr %0, ptr %3, align 8, !tbaa !268
  store i64 %1, ptr %4, align 8, !tbaa !18
  %7 = load ptr, ptr %3, align 8, !tbaa !268
  %8 = load i64, ptr %4, align 8, !tbaa !18
  store i64 %8, ptr %5, align 8, !tbaa !18
  %9 = load i64, ptr %5, align 8
  %10 = atomicrmw volatile add ptr %7, i64 %9 seq_cst, align 8
  %11 = add i64 %10, %9
  store i64 %11, ptr %6, align 8
  ret void
}

; Function Attrs: nounwind sspstrong uwtable
define internal zeroext i1 @objspace_malloc_increase_body(ptr noundef %0, ptr noundef %1, i64 noundef %2, i64 noundef %3, i32 noundef %4) #0 {
  %6 = alloca ptr, align 8
  %7 = alloca ptr, align 8
  %8 = alloca i64, align 8
  %9 = alloca i64, align 8
  %10 = alloca i32, align 4
  store ptr %0, ptr %6, align 8, !tbaa !125
  store ptr %1, ptr %7, align 8, !tbaa !76
  store i64 %2, ptr %8, align 8, !tbaa !18
  store i64 %3, ptr %9, align 8, !tbaa !18
  store i32 %4, ptr %10, align 4, !tbaa !7
  %11 = load i64, ptr %8, align 8, !tbaa !18
  %12 = load i64, ptr %9, align 8, !tbaa !18
  %13 = icmp ugt i64 %11, %12
  br i1 %13, label %14, label %27

14:                                               ; preds = %5
  %15 = load ptr, ptr %6, align 8, !tbaa !125
  %16 = getelementptr inbounds nuw %struct.rb_objspace, ptr %15, i32 0, i32 0
  %17 = getelementptr inbounds nuw %struct.anon.33, ptr %16, i32 0, i32 1
  %18 = load i64, ptr %8, align 8, !tbaa !18
  %19 = load i64, ptr %9, align 8, !tbaa !18
  %20 = sub i64 %18, %19
  call void @rbimpl_atomic_size_add(ptr noundef %17, i64 noundef %20) #48
  %21 = load ptr, ptr %6, align 8, !tbaa !125
  %22 = getelementptr inbounds nuw %struct.rb_objspace, ptr %21, i32 0, i32 16
  %23 = getelementptr inbounds nuw %struct.anon.37, ptr %22, i32 0, i32 7
  %24 = load i64, ptr %8, align 8, !tbaa !18
  %25 = load i64, ptr %9, align 8, !tbaa !18
  %26 = sub i64 %24, %25
  call void @rbimpl_atomic_size_add(ptr noundef %23, i64 noundef %26) #48
  br label %40

27:                                               ; preds = %5
  %28 = load ptr, ptr %6, align 8, !tbaa !125
  %29 = getelementptr inbounds nuw %struct.rb_objspace, ptr %28, i32 0, i32 0
  %30 = getelementptr inbounds nuw %struct.anon.33, ptr %29, i32 0, i32 1
  %31 = load i64, ptr %9, align 8, !tbaa !18
  %32 = load i64, ptr %8, align 8, !tbaa !18
  %33 = sub i64 %31, %32
  call void @atomic_sub_nounderflow(ptr noundef %30, i64 noundef %33)
  %34 = load ptr, ptr %6, align 8, !tbaa !125
  %35 = getelementptr inbounds nuw %struct.rb_objspace, ptr %34, i32 0, i32 16
  %36 = getelementptr inbounds nuw %struct.anon.37, ptr %35, i32 0, i32 7
  %37 = load i64, ptr %9, align 8, !tbaa !18
  %38 = load i64, ptr %8, align 8, !tbaa !18
  %39 = sub i64 %37, %38
  call void @atomic_sub_nounderflow(ptr noundef %36, i64 noundef %39)
  br label %40

40:                                               ; preds = %27, %14
  %41 = load i32, ptr %10, align 4, !tbaa !7
  %42 = icmp eq i32 %41, 0
  br i1 %42, label %43, label %77

43:                                               ; preds = %40
  br label %44

44:                                               ; preds = %71, %43
  %45 = load ptr, ptr %6, align 8, !tbaa !125
  %46 = getelementptr inbounds nuw %struct.rb_objspace, ptr %45, i32 0, i32 0
  %47 = getelementptr inbounds nuw %struct.anon.33, ptr %46, i32 0, i32 1
  %48 = load i64, ptr %47, align 8, !tbaa !384
  %49 = load ptr, ptr %6, align 8, !tbaa !125
  %50 = getelementptr inbounds nuw %struct.rb_objspace, ptr %49, i32 0, i32 0
  %51 = getelementptr inbounds nuw %struct.anon.33, ptr %50, i32 0, i32 0
  %52 = load i64, ptr %51, align 8, !tbaa !144
  %53 = icmp ugt i64 %48, %52
  br i1 %53, label %54, label %76

54:                                               ; preds = %44
  %55 = call i32 @ruby_native_thread_p()
  %56 = icmp ne i32 %55, 0
  br i1 %56, label %57, label %76

57:                                               ; preds = %54
  %58 = load ptr, ptr %6, align 8, !tbaa !125
  %59 = getelementptr inbounds nuw %struct.rb_objspace, ptr %58, i32 0, i32 3
  %60 = load i16, ptr %59, align 4
  %61 = lshr i16 %60, 3
  %62 = and i16 %61, 1
  %63 = zext i16 %62 to i32
  %64 = icmp ne i32 %63, 0
  br i1 %64, label %76, label %65

65:                                               ; preds = %57
  %66 = call i32 @ruby_thread_has_gvl_p()
  %67 = icmp ne i32 %66, 0
  br i1 %67, label %68, label %73

68:                                               ; preds = %65
  %69 = load ptr, ptr %6, align 8, !tbaa !125
  %70 = call zeroext i1 @has_sweeping_pages(ptr noundef %69)
  br i1 %70, label %71, label %73

71:                                               ; preds = %68
  %72 = load ptr, ptr %6, align 8, !tbaa !125
  call void @gc_rest(ptr noundef %72)
  br label %44

73:                                               ; preds = %68, %65
  %74 = load ptr, ptr %6, align 8, !tbaa !125
  %75 = call i32 @garbage_collect_with_gvl(ptr noundef %74, i32 noundef 512)
  br label %76

76:                                               ; preds = %73, %57, %54, %44
  br label %77

77:                                               ; preds = %76, %40
  ret i1 true
}