; Function Attrs: nounwind sspstrong uwtable
define internal fastcc void @objspace_malloc_increase_body(ptr noundef %0, i64 noundef %1, i64 noundef %2, i32 noundef range(i32 0, 3) %3) unnamed_addr #0 {
  %5 = alloca i32, align 4
  %6 = alloca i32, align 4
  %7 = alloca %struct.objspace_and_reason, align 8
  %8 = icmp ugt i64 %1, %2
  %9 = getelementptr inbounds nuw i8, ptr %0, i64 8
  br i1 %8, label %10, label %15

10:                                               ; preds = %4
  %11 = sub nuw i64 %1, %2
  %12 = atomicrmw volatile add ptr %9, i64 %11 seq_cst, align 8
  %13 = getelementptr inbounds nuw i8, ptr %0, i64 1144
  %14 = atomicrmw volatile add ptr %13, i64 %11 seq_cst, align 8
  br label %atomic_sub_nounderflow.exit27

15:                                               ; preds = %4
  %16 = sub nuw i64 %2, %1
  %17 = icmp eq i64 %16, 0
  br i1 %17, label %atomic_sub_nounderflow.exit27, label %.preheader.i

.preheader.i:                                     ; preds = %15, %.preheader.i
  %.010.i = phi i64 [ %spec.select.i, %.preheader.i ], [ %16, %15 ]
  %18 = load i64, ptr %9, align 8, !tbaa !93
  %spec.select.i = tail call i64 @llvm.umin.i64(i64 %18, i64 %.010.i)
  %19 = sub i64 %18, %spec.select.i
  %20 = cmpxchg volatile ptr %9, i64 %18, i64 %19 seq_cst seq_cst, align 8
  %21 = extractvalue { i64, i1 } %20, 1
  br i1 %21, label %atomic_sub_nounderflow.exit, label %.preheader.i

atomic_sub_nounderflow.exit:                      ; preds = %.preheader.i
  %22 = getelementptr inbounds nuw i8, ptr %0, i64 1144
  br label %.preheader.i24

.preheader.i24:                                   ; preds = %atomic_sub_nounderflow.exit, %.preheader.i24
  %.010.i25 = phi i64 [ %spec.select.i26, %.preheader.i24 ], [ %16, %atomic_sub_nounderflow.exit ]
  %23 = load i64, ptr %22, align 8, !tbaa !93
  %spec.select.i26 = tail call i64 @llvm.umin.i64(i64 %23, i64 %.010.i25)
  %24 = sub i64 %23, %spec.select.i26
  %25 = cmpxchg volatile ptr %22, i64 %23, i64 %24 seq_cst seq_cst, align 8
  %26 = extractvalue { i64, i1 } %25, 1
  br i1 %26, label %atomic_sub_nounderflow.exit27, label %.preheader.i24

atomic_sub_nounderflow.exit27:                    ; preds = %.preheader.i24, %15, %10
  %27 = icmp eq i32 %3, 0
  br i1 %27, label %.preheader, label %garbage_collect_with_gvl.exit

.preheader:                                       ; preds = %atomic_sub_nounderflow.exit27
  %28 = getelementptr inbounds nuw i8, ptr %0, i64 8
  %29 = load i64, ptr %28, align 8, !tbaa !404
  %30 = load i64, ptr %0, align 8, !tbaa !138
  %31 = icmp ugt i64 %29, %30
  br i1 %31, label %.lr.ph, label %garbage_collect_with_gvl.exit

.lr.ph:                                           ; preds = %.preheader
  %32 = getelementptr inbounds nuw i8, ptr %0, i64 20
  %invariant.gep.i = getelementptr i8, ptr %0, i64 136
  br label %33

33:                                               ; preds = %.lr.ph, %42
  %34 = tail call i32 @ruby_native_thread_p() #7
  %.not = icmp eq i32 %34, 0
  br i1 %.not, label %garbage_collect_with_gvl.exit, label %35

35:                                               ; preds = %33
  %36 = load i16, ptr %32, align 4
  %37 = and i16 %36, 8
  %.not22 = icmp eq i16 %37, 0
  br i1 %.not22, label %38, label %garbage_collect_with_gvl.exit

38:                                               ; preds = %35
  %39 = tail call i32 @ruby_thread_has_gvl_p() #7
  %.not23 = icmp eq i32 %39, 0
  br i1 %.not23, label %46, label %.preheader3

.preheader3:                                      ; preds = %38, %.preheader3
  %indvars.iv.i = phi i64 [ %indvars.iv.next.i, %.preheader3 ], [ 0, %38 ]
  %40 = mul nuw nsw i64 %indvars.iv.i, 144
  %gep.i = getelementptr i8, ptr %invariant.gep.i, i64 %40
  %41 = load ptr, ptr %gep.i, align 8, !tbaa !167
  %.not.not.i = icmp ne ptr %41, null
  %indvars.iv.next.i = add nuw nsw i64 %indvars.iv.i, 1
  %exitcond.not.i = icmp eq i64 %indvars.iv.next.i, 5
  %or.cond.i = select i1 %.not.not.i, i1 true, i1 %exitcond.not.i
  br i1 %or.cond.i, label %has_sweeping_pages.exit, label %.preheader3, !llvm.loop !168

has_sweeping_pages.exit:                          ; preds = %.preheader3
  br i1 %.not.not.i, label %42, label %46

42:                                               ; preds = %has_sweeping_pages.exit
  tail call fastcc void @gc_rest(ptr noundef nonnull %0)
  %43 = load i64, ptr %28, align 8, !tbaa !404
  %44 = load i64, ptr %0, align 8, !tbaa !138
  %45 = icmp ugt i64 %43, %44
  br i1 %45, label %33, label %garbage_collect_with_gvl.exit

46:                                               ; preds = %has_sweeping_pages.exit, %38
  %47 = load i16, ptr %32, align 4
  %48 = and i16 %47, 8
  %.not.i = icmp eq i16 %48, 0
  br i1 %.not.i, label %49, label %garbage_collect_with_gvl.exit

49:                                               ; preds = %46
  %50 = tail call i32 @ruby_native_thread_p() #7
  %.not6.i = icmp eq i32 %50, 0
  br i1 %.not6.i, label %garbage_collect_with_gvl.exit, label %51

51:                                               ; preds = %49
  %52 = tail call i32 @ruby_thread_has_gvl_p() #7
  %.not7.i = icmp eq i32 %52, 0
  br i1 %.not7.i, label %53, label %56

53:                                               ; preds = %51
  call void @llvm.lifetime.start.p0(i64 16, ptr nonnull %7) #7
  store ptr %0, ptr %7, align 8, !tbaa !667
  %54 = getelementptr inbounds nuw i8, ptr %7, i64 8
  store i32 512, ptr %54, align 8, !tbaa !669
  %55 = call ptr @rb_thread_call_with_gvl(ptr noundef nonnull @gc_with_gvl, ptr noundef nonnull %7) #7
  call void @llvm.lifetime.end.p0(i64 16, ptr nonnull %7) #7
  br label %garbage_collect_with_gvl.exit

56:                                               ; preds = %51
  call void @llvm.lifetime.start.p0(i64 4, ptr nonnull %6) #7
  %57 = load ptr, ptr @ruby_single_main_ractor, align 8, !tbaa !7
  %.not.i.i.i.i = icmp eq ptr %57, null
  br i1 %.not.i.i.i.i, label %58, label %rb_gc_vm_lock.exit.i

58:                                               ; preds = %56
  call void @rb_vm_lock_enter_body(ptr noundef nonnull %6) #7
  %.pre.i.i = load i32, ptr %6, align 4, !tbaa !12
  br label %rb_gc_vm_lock.exit.i

rb_gc_vm_lock.exit.i:                             ; preds = %58, %56
  %59 = phi i32 [ undef, %56 ], [ %.pre.i.i, %58 ]
  call void @llvm.lifetime.end.p0(i64 4, ptr nonnull %6) #7
  call fastcc void @gc_rest(ptr noundef nonnull %0)
  call fastcc void @gc_start(ptr noundef nonnull %0, i32 noundef 512)
  call void @llvm.lifetime.start.p0(i64 4, ptr nonnull %5)
  store i32 %59, ptr %5, align 4, !tbaa !12
  %60 = load ptr, ptr @ruby_single_main_ractor, align 8, !tbaa !7
  %.not.i.i.i4.i = icmp eq ptr %60, null
  br i1 %.not.i.i.i4.i, label %61, label %garbage_collect.exit

61:                                               ; preds = %rb_gc_vm_lock.exit.i
  call void @rb_vm_lock_leave_body(ptr noundef nonnull %5) #7
  br label %garbage_collect.exit

garbage_collect.exit:                             ; preds = %rb_gc_vm_lock.exit.i, %61
  call void @llvm.lifetime.end.p0(i64 4, ptr nonnull %5)
  br label %garbage_collect_with_gvl.exit

garbage_collect_with_gvl.exit:                    ; preds = %35, %33, %42, %.preheader, %garbage_collect.exit, %53, %49, %46, %atomic_sub_nounderflow.exit27
  ret void
}